(lp0
F1.5
aF0.015
aF9.371442112333236
aF4.569406503916158
aF94.39344046147541
aF147.04877982620118
aF50.498710183592415
aF0.5
aF110.21283533000583
aF47.92096076122213
aF64.8874269160297
aF558.823638348931
aI0
aI0
aF40.0
aF184.96295118884476
aI4
aF0.0
aI8
aF75.90336515912068
aF6.0
a.